; Function Attrs: mustprogress uwtable
define internal fastcc noundef ptr @_ZL10checkRangePN5Yosys3AST7AstNodeES2_(ptr noundef readonly captures(none) %0, ptr noundef readonly captures(address_is_null, ret: address, provenance) %1) unnamed_addr #5 {
  %3 = getelementptr inbounds nuw i8, ptr %0, i64 156
  %4 = load i32, ptr %3, align 4, !tbaa !153
  %5 = icmp sgt i32 %4, -1
  br i1 %5, label %6, label %14

6:                                                ; preds = %2
  %7 = getelementptr inbounds nuw i8, ptr %0, i64 160
  %8 = load i32, ptr %7, align 8, !tbaa !154
  %9 = icmp sgt i32 %8, -1
  br i1 %9, label %10, label %14

10:                                               ; preds = %6
  %.not = icmp eq ptr %1, null
  br i1 %.not, label %12, label %11

11:                                               ; preds = %10
  tail call void (ptr, ...) @_Z24frontend_verilog_yyerrorPKcz(ptr noundef nonnull @.str.635)
  br label %.thread

12:                                               ; preds = %10
  %13 = tail call fastcc noundef ptr @_ZL9makeRangeiib(i32 noundef %4, i32 noundef %8, i1 noundef zeroext false)
  br label %.thread

14:                                               ; preds = %6, %2
  %.not18 = icmp eq ptr %1, null
  br i1 %.not18, label %._crit_edge.thread, label %.thread

.thread:                                          ; preds = %12, %11, %14
  %.024 = phi ptr [ %1, %14 ], [ %13, %12 ], [ %1, %11 ]
  %15 = getelementptr inbounds nuw i8, ptr %.024, i64 4
  %16 = load i32, ptr %15, align 4, !tbaa !105
  %17 = icmp eq i32 %16, 14
  %18 = getelementptr inbounds nuw i8, ptr %.024, i64 8
  br i1 %17, label %19, label %27

19:                                               ; preds = %.thread
  %20 = getelementptr inbounds nuw i8, ptr %.024, i64 16
  %21 = load ptr, ptr %20, align 8, !tbaa !127
  %22 = load ptr, ptr %18, align 8, !tbaa !70
  %23 = ptrtoint ptr %21 to i64
  %24 = ptrtoint ptr %22 to i64
  %25 = sub i64 %23, %24
  %26 = icmp eq i64 %25, 16
  br i1 %26, label %._crit_edge.thread, label %47

27:                                               ; preds = %.thread
  %28 = load ptr, ptr %18, align 8, !tbaa !104
  %29 = getelementptr inbounds nuw i8, ptr %.024, i64 16
  %30 = load ptr, ptr %29, align 8, !tbaa !104
  %.not2627 = icmp eq ptr %28, %30
  br i1 %.not2627, label %._crit_edge.thread, label %.lr.ph

.lr.ph:                                           ; preds = %27, %43
  %.129 = phi i8 [ %44, %43 ], [ 1, %27 ]
  %.sroa.019.028 = phi ptr [ %45, %43 ], [ %28, %27 ]
  %31 = trunc nuw i8 %.129 to i1
  br i1 %31, label %32, label %43

32:                                               ; preds = %.lr.ph
  %33 = load ptr, ptr %.sroa.019.028, align 8, !tbaa !102
  %34 = getelementptr inbounds nuw i8, ptr %33, i64 8
  %35 = getelementptr inbounds nuw i8, ptr %33, i64 16
  %36 = load ptr, ptr %35, align 8, !tbaa !127
  %37 = load ptr, ptr %34, align 8, !tbaa !70
  %38 = ptrtoint ptr %36 to i64
  %39 = ptrtoint ptr %37 to i64
  %40 = sub i64 %38, %39
  %41 = icmp eq i64 %40, 16
  %42 = zext i1 %41 to i8
  br label %43

43:                                               ; preds = %32, %.lr.ph
  %44 = phi i8 [ 0, %.lr.ph ], [ %42, %32 ]
  %45 = getelementptr inbounds nuw i8, ptr %.sroa.019.028, i64 8
  %.not26 = icmp eq ptr %45, %30
  br i1 %.not26, label %._crit_edge, label %.lr.ph

._crit_edge:                                      ; preds = %43
  %46 = trunc nuw i8 %44 to i1
  br i1 %46, label %._crit_edge.thread, label %47

47:                                               ; preds = %19, %._crit_edge
  tail call void (ptr, ...) @_Z24frontend_verilog_yyerrorPKcz(ptr noundef nonnull @.str.636)
  br label %._crit_edge.thread

._crit_edge.thread:                               ; preds = %27, %19, %._crit_edge, %47, %14
  %.025 = phi ptr [ %.024, %._crit_edge ], [ %.024, %47 ], [ null, %14 ], [ %.024, %19 ], [ %.024, %27 ]
  ret ptr %.025
}